	.file	"fork.cc"
	.text
.Ltext0:
	.globl	_Z11verify_areaPvi
	.type	_Z11verify_areaPvi, @function
_Z11verify_areaPvi:
.LFB10:
	.file 1 "fork.cc"
	.loc 1 26 0
	.cfi_startproc
.LVL0:
	pushl	%edi
	.cfi_def_cfa_offset 8
	.cfi_offset 7, -8
	pushl	%esi
	.cfi_def_cfa_offset 12
	.cfi_offset 6, -12
	pushl	%ebx
	.cfi_def_cfa_offset 16
	.cfi_offset 3, -16
	call	__x86.get_pc_thunk.bx
	addl	$_GLOBAL_OFFSET_TABLE_, %ebx
	movl	16(%esp), %esi
.LVL1:
	.loc 1 30 0
	movl	%esi, %eax
	andl	$4095, %eax
	addl	20(%esp), %eax
.LVL2:
	.loc 1 31 0
	andl	$-4096, %esi
.LVL3:
	.loc 1 32 0
	movl	current@GOT(%ebx), %edx
	movl	(%edx), %ecx
.LVL4:
.LBB10:
.LBB11:
	.file 2 "../include/linux/sched.h"
	.loc 2 273 0
#APP
# 273 "../include/linux/sched.h" 1
	movb 743(%ecx),%dh
	movb 740(%ecx),%dl
	shll $16,%edx
	movw 738(%ecx),%dx
# 0 "" 2
.LVL5:
#NO_APP
.LBE11:
.LBE10:
	.loc 1 32 0
	addl	%edx, %esi
.LVL6:
	.loc 1 33 0
	testl	%eax, %eax
	jle	.L1
	decl	%eax
.LVL7:
	andl	$-4096, %eax
.LVL8:
	leal	4096(%esi,%eax), %edi
.LVL9:
.L3:
	.loc 1 35 0
	subl	$12, %esp
	.cfi_def_cfa_offset 28
	pushl	%esi
	.cfi_def_cfa_offset 32
	call	_Z12write_verifym@PLT
.LVL10:
	.loc 1 36 0
	addl	$4096, %esi
.LVL11:
	.loc 1 33 0
	addl	$16, %esp
	.cfi_def_cfa_offset 16
	cmpl	%edi, %esi
	jne	.L3
.LVL12:
.L1:
	.loc 1 38 0
	popl	%ebx
	.cfi_restore 3
	.cfi_def_cfa_offset 12
	popl	%esi
	.cfi_restore 6
	.cfi_def_cfa_offset 8
.LVL13:
	popl	%edi
	.cfi_restore 7
	.cfi_def_cfa_offset 4
	ret
	.cfi_endproc
.LFE10:
	.size	_Z11verify_areaPvi, .-_Z11verify_areaPvi
	.section	.rodata.str1.1,"aMS",@progbits,1
.LC0:
	.string	"We don't support separate I&D"
.LC1:
	.string	"Bad data_limit"
	.section	.rodata.str1.4,"aMS",@progbits,1
	.align 4
.LC2:
	.string	"free_page_tables: from copy_mem\n"
	.text
	.globl	_Z8copy_memiP11task_struct
	.type	_Z8copy_memiP11task_struct, @function
_Z8copy_memiP11task_struct:
.LFB11:
	.loc 1 41 0
	.cfi_startproc
.LVL14:
	pushl	%ebp
	.cfi_def_cfa_offset 8
	.cfi_offset 5, -8
	pushl	%edi
	.cfi_def_cfa_offset 12
	.cfi_offset 7, -12
	pushl	%esi
	.cfi_def_cfa_offset 16
	.cfi_offset 6, -16
	pushl	%ebx
	.cfi_def_cfa_offset 20
	.cfi_offset 3, -20
	subl	$28, %esp
	.cfi_def_cfa_offset 48
	call	__x86.get_pc_thunk.bx
	addl	$_GLOBAL_OFFSET_TABLE_, %ebx
	movl	52(%esp), %esi
.LBB12:
	.loc 1 45 0
	movl	$15, %edi
#APP
# 45 "fork.cc" 1
	lsll %edi,%edi
	incl %edi
# 0 "" 2
.LVL15:
#NO_APP
.LBE12:
.LBB13:
	.loc 1 46 0
	movl	$23, %ebp
#APP
# 46 "fork.cc" 1
	lsll %ebp,%ebp
	incl %ebp
# 0 "" 2
.LVL16:
#NO_APP
.LBE13:
	.loc 1 47 0
	movl	current@GOT(%ebx), %eax
	movl	(%eax), %eax
.LVL17:
.LBB14:
.LBB15:
	.loc 2 273 0
#APP
# 273 "../include/linux/sched.h" 1
	movb 735(%eax),%dh
	movb 732(%eax),%dl
	shll $16,%edx
	movw 730(%eax),%dx
# 0 "" 2
#NO_APP
	movl	%edx, %ecx
.LVL18:
.LBE15:
.LBE14:
.LBB16:
.LBB17:
#APP
# 273 "../include/linux/sched.h" 1
	movb 743(%eax),%dh
	movb 740(%eax),%dl
	shll $16,%edx
	movw 738(%eax),%dx
# 0 "" 2
#NO_APP
	movl	%edx, 12(%esp)
.LVL19:
.LBE17:
.LBE16:
	.loc 1 49 0
	cmpl	%ecx, %edx
	jne	.L11
.L7:
	.loc 1 51 0
	cmpl	%ebp, %edi
	ja	.L12
.L8:
	.loc 1 53 0
	movl	48(%esp), %edi
.LVL20:
	sall	$26, %edi
.LVL21:
	.loc 1 54 0
	movl	%edi, 536(%esi)
	.loc 1 55 0
	movl	%edi, %edx
#APP
# 55 "fork.cc" 1
	push %edx
	movw %dx,730(%esi)
	rorl $16,%edx
	movb %dl,732(%esi)
	movb %dh,735(%esi)
	pop %edx
# 0 "" 2
	.loc 1 56 0
# 56 "fork.cc" 1
	push %edx
	movw %dx,738(%esi)
	rorl $16,%edx
	movb %dl,740(%esi)
	movb %dh,743(%esi)
	pop %edx
# 0 "" 2
	.loc 1 57 0
#NO_APP
	subl	$4, %esp
	.cfi_def_cfa_offset 52
	pushl	%ebp
	.cfi_def_cfa_offset 56
	pushl	%edi
	.cfi_def_cfa_offset 60
	pushl	24(%esp)
	.cfi_def_cfa_offset 64
	call	_Z16copy_page_tablesmml@PLT
.LVL22:
	addl	$16, %esp
	.cfi_def_cfa_offset 48
	testl	%eax, %eax
	jne	.L13
.LVL23:
.L6:
	.loc 1 63 0
	addl	$28, %esp
	.cfi_remember_state
	.cfi_def_cfa_offset 20
	popl	%ebx
	.cfi_restore 3
	.cfi_def_cfa_offset 16
	popl	%esi
	.cfi_restore 6
	.cfi_def_cfa_offset 12
	popl	%edi
	.cfi_restore 7
	.cfi_def_cfa_offset 8
	popl	%ebp
	.cfi_restore 5
	.cfi_def_cfa_offset 4
.LVL24:
	ret
.LVL25:
.L11:
	.cfi_restore_state
	.loc 1 50 0
	subl	$12, %esp
	.cfi_def_cfa_offset 60
	leal	.LC0@GOTOFF(%ebx), %eax
	pushl	%eax
	.cfi_def_cfa_offset 64
	call	_Z5panicPKc@PLT
.LVL26:
	addl	$16, %esp
	.cfi_def_cfa_offset 48
	jmp	.L7
.L12:
	.loc 1 52 0
	subl	$12, %esp
	.cfi_def_cfa_offset 60
	leal	.LC1@GOTOFF(%ebx), %eax
	pushl	%eax
	.cfi_def_cfa_offset 64
	call	_Z5panicPKc@PLT
.LVL27:
	addl	$16, %esp
	.cfi_def_cfa_offset 48
	jmp	.L8
.LVL28:
.L13:
	.loc 1 58 0
	subl	$12, %esp
	.cfi_def_cfa_offset 60
	leal	.LC2@GOTOFF(%ebx), %eax
	pushl	%eax
	.cfi_def_cfa_offset 64
	call	printk@PLT
.LVL29:
	.loc 1 59 0
	addl	$8, %esp
	.cfi_def_cfa_offset 56
	pushl	%ebp
	.cfi_def_cfa_offset 60
	pushl	%edi
	.cfi_def_cfa_offset 64
	call	_Z16free_page_tablesmm@PLT
.LVL30:
	addl	$16, %esp
	.cfi_def_cfa_offset 48
	.loc 1 60 0
	movl	$-12, %eax
.LVL31:
	jmp	.L6
	.cfi_endproc
.LFE11:
	.size	_Z8copy_memiP11task_struct, .-_Z8copy_memiP11task_struct
	.globl	_Z12copy_processillllllllllllllll
	.type	_Z12copy_processillllllllllllllll, @function
_Z12copy_processillllllllllllllll:
.LFB12:
	.loc 1 74 0
	.cfi_startproc
.LVL32:
	pushl	%ebp
	.cfi_def_cfa_offset 8
	.cfi_offset 5, -8
	pushl	%edi
	.cfi_def_cfa_offset 12
	.cfi_offset 7, -12
	pushl	%esi
	.cfi_def_cfa_offset 16
	.cfi_offset 6, -16
	pushl	%ebx
	.cfi_def_cfa_offset 20
	.cfi_offset 3, -20
	subl	$12, %esp
	.cfi_def_cfa_offset 32
	call	__x86.get_pc_thunk.bx
	addl	$_GLOBAL_OFFSET_TABLE_, %ebx
	.loc 1 79 0
	call	_Z13get_free_pagev@PLT
.LVL33:
	.loc 1 80 0
	testl	%eax, %eax
	je	.L23
	movl	%eax, %ebp
	.loc 1 82 0
	movl	task@GOT(%ebx), %eax
.LVL34:
	movl	32(%esp), %edi
	movl	%ebp, (%eax,%edi,4)
	.loc 1 84 0
	movl	current@GOT(%ebx), %eax
	movl	(%eax), %esi
	movl	$239, %ecx
	movl	%ebp, %edi
	rep movsl
	.loc 1 85 0
	movl	$2, 0(%ebp)
	.loc 1 86 0
	movl	last_pid@GOTOFF(%ebx), %edx
	movl	%edx, 556(%ebp)
	.loc 1 87 0
	movl	(%eax), %edx
	movl	556(%edx), %eax
	movl	%eax, 560(%ebp)
	.loc 1 88 0
	movl	8(%ebp), %eax
	movl	%eax, 4(%ebp)
	.loc 1 89 0
	movl	$0, 12(%ebp)
	.loc 1 90 0
	movl	$0, 588(%ebp)
	.loc 1 91 0
	movl	$0, 572(%ebp)
	.loc 1 92 0
	movl	$0, 596(%ebp)
	movl	$0, 592(%ebp)
	.loc 1 93 0
	movl	$0, 604(%ebp)
	movl	$0, 600(%ebp)
	.loc 1 94 0
	movl	jiffies@GOT(%ebx), %eax
	movl	(%eax), %eax
	movl	%eax, 608(%ebp)
	.loc 1 95 0
	movl	$0, 744(%ebp)
	.loc 1 96 0
	leal	4096(%ebp), %eax
	movl	%eax, 748(%ebp)
	.loc 1 97 0
	movl	$16, 752(%ebp)
	.loc 1 98 0
	movl	80(%esp), %eax
	movl	%eax, 776(%ebp)
	.loc 1 99 0
	movl	88(%esp), %eax
	movl	%eax, 780(%ebp)
	.loc 1 100 0
	movl	$0, 784(%ebp)
	.loc 1 101 0
	movl	60(%esp), %eax
	movl	%eax, 788(%ebp)
	.loc 1 102 0
	movl	64(%esp), %eax
	movl	%eax, 792(%ebp)
	.loc 1 103 0
	movl	56(%esp), %eax
	movl	%eax, 796(%ebp)
	.loc 1 104 0
	movl	92(%esp), %eax
	movl	%eax, 800(%ebp)
	.loc 1 105 0
	movl	36(%esp), %eax
	movl	%eax, 804(%ebp)
	.loc 1 106 0
	movl	44(%esp), %eax
	movl	%eax, 808(%ebp)
	.loc 1 107 0
	movl	40(%esp), %eax
	movl	%eax, 812(%ebp)
	.loc 1 108 0
	movzwl	72(%esp), %eax
	movl	%eax, 816(%ebp)
	.loc 1 109 0
	movzwl	84(%esp), %eax
	movl	%eax, 820(%ebp)
	.loc 1 110 0
	movzwl	96(%esp), %eax
	movl	%eax, 824(%ebp)
	.loc 1 111 0
	movzwl	76(%esp), %eax
	movl	%eax, 828(%ebp)
	.loc 1 112 0
	movzwl	68(%esp), %eax
	movl	%eax, 832(%ebp)
	.loc 1 113 0
	movzwl	48(%esp), %eax
	movl	%eax, 836(%ebp)
	.loc 1 114 0
	movl	32(%esp), %eax
	sall	$4, %eax
	addl	$40, %eax
	movl	%eax, 840(%ebp)
	.loc 1 115 0
	movl	$-2147483648, 844(%ebp)
	.loc 1 116 0
	movl	last_task_used_math@GOT(%ebx), %eax
	cmpl	(%eax), %edx
	je	.L26
.L16:
	.loc 1 118 0
	subl	$8, %esp
	.cfi_def_cfa_offset 40
	pushl	%ebp
	.cfi_def_cfa_offset 44
	pushl	44(%esp)
	.cfi_def_cfa_offset 48
	call	_Z8copy_memiP11task_struct
.LVL35:
	addl	$16, %esp
	.cfi_def_cfa_offset 32
	testl	%eax, %eax
	jne	.L27
	leal	640(%ebp), %eax
	leal	720(%ebp), %ecx
	jmp	.L19
.L26:
	.loc 1 117 0
#APP
# 117 "fork.cc" 1
	clts ; fnsave 848(%ebp)
# 0 "" 2
#NO_APP
	jmp	.L16
.L27:
	.loc 1 119 0
	movl	task@GOT(%ebx), %eax
	movl	32(%esp), %esi
	movl	$0, (%eax,%esi,4)
	.loc 1 120 0
	subl	$12, %esp
	.cfi_def_cfa_offset 44
	pushl	%ebp
	.cfi_def_cfa_offset 48
	call	_Z9free_pagem@PLT
.LVL36:
	.loc 1 121 0
	addl	$16, %esp
	.cfi_def_cfa_offset 32
	movl	$-11, %eax
	jmp	.L14
.LVL37:
.L18:
	addl	$4, %eax
	.loc 1 123 0 discriminator 2
	cmpl	%ecx, %eax
	je	.L28
.LVL38:
.L19:
	.loc 1 124 0
	movl	(%eax), %edx
.LVL39:
	testl	%edx, %edx
	je	.L18
	.loc 1 125 0
	incw	4(%edx)
	jmp	.L18
.L28:
	.loc 1 128 0
	movl	current@GOT(%ebx), %eax
	movl	(%eax), %eax
	movl	624(%eax), %edx
.LVL40:
	testl	%edx, %edx
	je	.L20
	.loc 1 129 0
	incw	48(%edx)
.L20:
	.loc 1 130 0
	movl	628(%eax), %edx
	testl	%edx, %edx
	je	.L21
	.loc 1 131 0
	incw	48(%edx)
.L21:
	.loc 1 132 0
	movl	632(%eax), %eax
	testl	%eax, %eax
	je	.L22
	.loc 1 133 0
	incw	48(%eax)
.L22:
	.loc 1 134 0
	movl	32(%esp), %eax
	leal	4(%eax,%eax), %edx
	sall	$3, %edx
	leal	744(%ebp), %eax
	movl	gdt@GOT(%ebx), %ecx
#APP
# 134 "fork.cc" 1
	movw $104,(%edx,%ecx)
	movw %ax,2(%edx,%ecx)
	rorl $16,%eax
	movb %al,4(%edx,%ecx)
	movb $0x89,5(%edx,%ecx)
	movb $0x00,6(%edx,%ecx)
	movb %ah,7(%edx,%ecx)
	rorl $16,%eax
# 0 "" 2
	.loc 1 135 0
#NO_APP
	leal	720(%ebp), %eax
#APP
# 135 "fork.cc" 1
	movw $104,8(%edx,%ecx)
	movw %ax,10(%edx,%ecx)
	rorl $16,%eax
	movb %al,12(%edx,%ecx)
	movb $0x82,13(%edx,%ecx)
	movb $0x00,14(%edx,%ecx)
	movb %ah,15(%edx,%ecx)
	rorl $16,%eax
# 0 "" 2
	.loc 1 136 0
#NO_APP
	movl	$0, 0(%ebp)
	.loc 1 137 0
	movl	last_pid@GOTOFF(%ebx), %eax
.LVL41:
.L14:
	.loc 1 138 0
	addl	$12, %esp
	.cfi_remember_state
	.cfi_def_cfa_offset 20
	popl	%ebx
	.cfi_restore 3
	.cfi_def_cfa_offset 16
	popl	%esi
	.cfi_restore 6
	.cfi_def_cfa_offset 12
	popl	%edi
	.cfi_restore 7
	.cfi_def_cfa_offset 8
	popl	%ebp
	.cfi_restore 5
	.cfi_def_cfa_offset 4
	ret
.LVL42:
.L23:
	.cfi_restore_state
	.loc 1 81 0
	movl	$-11, %eax
.LVL43:
	jmp	.L14
	.cfi_endproc
.LFE12:
	.size	_Z12copy_processillllllllllllllll, .-_Z12copy_processillllllllllllllll
	.globl	_Z18find_empty_processv
	.type	_Z18find_empty_processv, @function
_Z18find_empty_processv:
.LFB13:
	.loc 1 141 0
	.cfi_startproc
	.loc 1 151 0
	ret
	.cfi_endproc
.LFE13:
	.size	_Z18find_empty_processv, .-_Z18find_empty_processv
	.globl	_Z4testv
	.type	_Z4testv, @function
_Z4testv:
.LFB14:
	.loc 1 154 0
	.cfi_startproc
	call	__x86.get_pc_thunk.ax
	addl	$_GLOBAL_OFFSET_TABLE_, %eax
.LVL44:
	.loc 1 156 0
	flds	.LC3@GOTOFF(%eax)
	.loc 1 157 0
	ret
	.cfi_endproc
.LFE14:
	.size	_Z4testv, .-_Z4testv
	.globl	last_pid
	.bss
	.align 4
	.type	last_pid, @object
	.size	last_pid, 4
last_pid:
	.zero	4
	.section	.rodata.cst4,"aM",@progbits,4
	.align 4
.LC3:
	.long	1120403325
	.section	.text.__x86.get_pc_thunk.ax,"axG",@progbits,__x86.get_pc_thunk.ax,comdat
	.globl	__x86.get_pc_thunk.ax
	.hidden	__x86.get_pc_thunk.ax
	.type	__x86.get_pc_thunk.ax, @function
__x86.get_pc_thunk.ax:
.LFB15:
	.cfi_startproc
	movl	(%esp), %eax
	ret
	.cfi_endproc
.LFE15:
	.section	.text.__x86.get_pc_thunk.bx,"axG",@progbits,__x86.get_pc_thunk.bx,comdat
	.globl	__x86.get_pc_thunk.bx
	.hidden	__x86.get_pc_thunk.bx
	.type	__x86.get_pc_thunk.bx, @function
__x86.get_pc_thunk.bx:
.LFB16:
	.cfi_startproc
	movl	(%esp), %ebx
	ret
	.cfi_endproc
.LFE16:
	.text
.Letext0:
	.file 3 "../include/linux/fs.h"
	.file 4 "../include/errno.h"
	.file 5 "../include/linux/head.h"
	.file 6 "../include/sys/types.h"
	.file 7 "../include/signal.h"
	.file 8 "../include/linux/mm.h"
	.file 9 "../include/linux/kernel.h"
	.section	.note.GNU-stack,"",@progbits
